; Function Attrs: nounwind uwtable
define dso_local void @set_job_state(ptr noundef %0, i32 noundef %1) local_unnamed_addr #0 {
  %3 = getelementptr inbounds nuw i8, ptr %0, i64 72
  %4 = tail call i32 @pthread_mutex_lock(ptr noundef nonnull %3) #17
  %.not = icmp eq i32 %4, 0
  br i1 %.not, label %7, label %5

5:                                                ; preds = %2
  %6 = tail call ptr @__errno_location() #18
  store i32 %4, ptr %6, align 4
  tail call void (ptr, ...) @fatal_abort(ptr noundef nonnull @.str.9, ptr noundef nonnull @__func__.set_job_state) #19
  unreachable

7:                                                ; preds = %2
  %8 = getelementptr inbounds nuw i8, ptr %0, i64 16
  store i32 %1, ptr %8, align 8
  %9 = getelementptr inbounds nuw i8, ptr %0, i64 24
  %10 = tail call i32 @pthread_cond_signal(ptr noundef nonnull %9) #17
  %.not12 = icmp eq i32 %10, 0
  br i1 %.not12, label %14, label %11

11:                                               ; preds = %7
  %12 = tail call ptr @__errno_location() #18
  store i32 %10, ptr %12, align 4
  %13 = tail call i32 (ptr, ...) @error(ptr noundef nonnull @.str.15, ptr noundef nonnull @.str.16, i32 noundef 936, ptr noundef nonnull @__func__.set_job_state) #17
  br label %14

14:                                               ; preds = %11, %7
  %15 = tail call i32 @pthread_mutex_unlock(ptr noundef nonnull %3) #17
  %.not13 = icmp eq i32 %15, 0
  br i1 %.not13, label %18, label %16

16:                                               ; preds = %14
  %17 = tail call ptr @__errno_location() #18
  store i32 %15, ptr %17, align 4
  tail call void (ptr, ...) @fatal_abort(ptr noundef nonnull @.str.14, ptr noundef nonnull @__func__.set_job_state) #19
  unreachable

18:                                               ; preds = %14
  ret void
}